; Function Attrs: mustprogress nounwind uwtable
define noundef zeroext i1 @_ZNK3spv10spirvbin_t9isConstOpENS_2OpE(ptr nocapture noundef nonnull writeonly align 8 dereferenceable(473) %0, i32 noundef %1) local_unnamed_addr #0 align 2 {
  %3 = alloca %"class.std::__cxx11::basic_string", align 8
  %4 = alloca %"class.std::allocator.74", align 1
  switch i32 %1, label %11 [
    i32 45, label %5
    i32 46, label %12
    i32 41, label %12
    i32 42, label %12
    i32 44, label %12
    i32 43, label %12
  ]

5:                                                ; preds = %2
  call void @_ZNSaIcEC1Ev(ptr noundef nonnull align 1 dereferenceable(1) %4) #24
  %6 = call noundef ptr @_ZNSt7__cxx1112basic_stringIcSt11char_traitsIcESaIcEE13_M_local_dataEv(ptr noundef nonnull align 8 dereferenceable(32) %3) #24
  call void @_ZNSt7__cxx1112basic_stringIcSt11char_traitsIcESaIcEE12_Alloc_hiderC1EPcRKS3_(ptr noundef nonnull align 8 dereferenceable(8) %3, ptr noundef %6, ptr noundef nonnull align 1 dereferenceable(1) %4) #24
  call void @_ZNSt7__cxx1112basic_stringIcSt11char_traitsIcESaIcEE12_M_constructIPKcEEvT_S8_St20forward_iterator_tag(ptr noundef nonnull align 8 dereferenceable(32) %3, ptr noundef nonnull @.str.2, ptr noundef nonnull getelementptr inbounds (i8, ptr @.str.2, i64 27))
  %7 = getelementptr inbounds i8, ptr %0, i64 472
  store i8 1, ptr %7, align 8
  %8 = load ptr, ptr getelementptr inbounds (i8, ptr @_ZN3spv10spirvbin_t12errorHandlerB5cxx11E, i64 16), align 8
  %.not.i.i.i = icmp eq ptr %8, null
  br i1 %.not.i.i.i, label %9, label %_ZNK3spv10spirvbin_t5errorERKNSt7__cxx1112basic_stringIcSt11char_traitsIcESaIcEEE.exit

9:                                                ; preds = %5
  call void @_ZSt25__throw_bad_function_callv() #25
  unreachable

_ZNK3spv10spirvbin_t5errorERKNSt7__cxx1112basic_stringIcSt11char_traitsIcESaIcEEE.exit: ; preds = %5
  %10 = load ptr, ptr getelementptr inbounds (i8, ptr @_ZN3spv10spirvbin_t12errorHandlerB5cxx11E, i64 24), align 8
  call void %10(ptr noundef nonnull align 8 dereferenceable(16) @_ZN3spv10spirvbin_t12errorHandlerB5cxx11E, ptr noundef nonnull align 8 dereferenceable(32) %3) #24
  call void @_ZNSt7__cxx1112basic_stringIcSt11char_traitsIcESaIcEED1Ev(ptr noundef nonnull align 8 dereferenceable(32) %3) #24
  call void @_ZNSaIcED1Ev(ptr noundef nonnull align 1 dereferenceable(1) %4) #24
  br label %12

11:                                               ; preds = %2
  br label %12

12:                                               ; preds = %2, %2, %2, %2, %2, %11, %_ZNK3spv10spirvbin_t5errorERKNSt7__cxx1112basic_stringIcSt11char_traitsIcESaIcEEE.exit
  %.0 = phi i1 [ false, %11 ], [ true, %_ZNK3spv10spirvbin_t5errorERKNSt7__cxx1112basic_stringIcSt11char_traitsIcESaIcEEE.exit ], [ true, %2 ], [ true, %2 ], [ true, %2 ], [ true, %2 ], [ true, %2 ]
  ret i1 %.0
}